target datalayout = "e-m:e-p270:32:32-p271:32:32-p272:64:64-i64:64-i128:128-f80:128-n8:16:32:64-S128"
target triple = "x86_64-pc-linux-gnu"

%struct.IspellDict = type { i32, i32, ptr, ptr, ptr, ptr, ptr, i32, i32, i8, ptr, i8, i32, ptr, i32, i32, ptr, ptr, i32, i32, ptr, i64 }
%struct.SPNode = type { i32, [0 x %struct.SPNodeData] }
%struct.SPNodeData = type { i32, ptr }

; Function Attrs: nounwind uwtable
define internal zeroext i1 @IsAffixFlagInUse(ptr noundef %0, i32 noundef %1, ptr noundef %2) #0 {
  %4 = alloca i1, align 1
  %5 = alloca ptr, align 8
  %6 = alloca i32, align 4
  %7 = alloca ptr, align 8
  %8 = alloca ptr, align 8
  %9 = alloca [8192 x i8], align 16
  %10 = alloca i32, align 4
  store ptr %0, ptr %5, align 8
  store i32 %1, ptr %6, align 4
  store ptr %2, ptr %7, align 8
  call void @llvm.lifetime.start.p0(i64 8, ptr %8) #11
  call void @llvm.lifetime.start.p0(i64 8192, ptr %9) #11
  %11 = load ptr, ptr %7, align 8
  %12 = load i8, ptr %11, align 1
  %13 = sext i8 %12 to i32
  %14 = icmp eq i32 %13, 0
  br i1 %14, label %15, label %16

15:                                               ; preds = %3
  store i1 true, ptr %4, align 1
  store i32 1, ptr %10, align 4
  br label %38

16:                                               ; preds = %3
  %17 = load ptr, ptr %5, align 8
  %18 = getelementptr inbounds nuw %struct.IspellDict, ptr %17, i32 0, i32 6
  %19 = load ptr, ptr %18, align 8
  %20 = load i32, ptr %6, align 4
  %21 = sext i32 %20 to i64
  %22 = getelementptr inbounds ptr, ptr %19, i64 %21
  %23 = load ptr, ptr %22, align 8
  store ptr %23, ptr %8, align 8
  br label %24

24:                                               ; preds = %36, %16
  %25 = load ptr, ptr %8, align 8
  %26 = load i8, ptr %25, align 1
  %27 = icmp ne i8 %26, 0
  br i1 %27, label %28, label %37

28:                                               ; preds = %24
  %29 = load ptr, ptr %5, align 8
  %30 = getelementptr inbounds [8192 x i8], ptr %9, i64 0, i64 0
  call void @getNextFlagFromString(ptr noundef %29, ptr noundef %8, ptr noundef %30)
  %31 = getelementptr inbounds [8192 x i8], ptr %9, i64 0, i64 0
  %32 = load ptr, ptr %7, align 8
  %33 = call i32 @strcmp(ptr noundef %31, ptr noundef %32) #14
  %34 = icmp eq i32 %33, 0
  br i1 %34, label %35, label %36

35:                                               ; preds = %28
  store i1 true, ptr %4, align 1
  store i32 1, ptr %10, align 4
  br label %38

36:                                               ; preds = %28
  br label %24, !llvm.loop !58

37:                                               ; preds = %24
  store i1 false, ptr %4, align 1
  store i32 1, ptr %10, align 4
  br label %38

38:                                               ; preds = %37, %35, %15
  call void @llvm.lifetime.end.p0(i64 8192, ptr %9) #11
  call void @llvm.lifetime.end.p0(i64 8, ptr %8) #11
  %39 = load i1, ptr %4, align 1
  ret i1 %39
}

; Function Attrs: nounwind uwtable
define internal i32 @FindWord(ptr noundef %0, ptr noundef %1, ptr noundef %2, i32 noundef %3) #0 {
  %5 = alloca i32, align 4
  %6 = alloca ptr, align 8
  %7 = alloca ptr, align 8
  %8 = alloca ptr, align 8
  %9 = alloca i32, align 4
  %10 = alloca ptr, align 8
  %11 = alloca ptr, align 8
  %12 = alloca ptr, align 8
  %13 = alloca ptr, align 8
  %14 = alloca ptr, align 8
  %15 = alloca i32, align 4
  store ptr %0, ptr %6, align 8
  store ptr %1, ptr %7, align 8
  store ptr %2, ptr %8, align 8
  store i32 %3, ptr %9, align 4
  call void @llvm.lifetime.start.p0(i64 8, ptr %10) #11
  %16 = load ptr, ptr %6, align 8
  %17 = getelementptr inbounds nuw %struct.IspellDict, ptr %16, i32 0, i32 5
  %18 = load ptr, ptr %17, align 8
  store ptr %18, ptr %10, align 8
  call void @llvm.lifetime.start.p0(i64 8, ptr %11) #11
  call void @llvm.lifetime.start.p0(i64 8, ptr %12) #11
  call void @llvm.lifetime.start.p0(i64 8, ptr %13) #11
  call void @llvm.lifetime.start.p0(i64 8, ptr %14) #11
  %19 = load ptr, ptr %7, align 8
  store ptr %19, ptr %14, align 8
  %20 = load i32, ptr %9, align 4
  %21 = and i32 %20, 15
  store i32 %21, ptr %9, align 4
  br label %22

22:                                               ; preds = %134, %4
  %23 = load ptr, ptr %10, align 8
  %24 = icmp ne ptr %23, null
  br i1 %24, label %25, label %30

25:                                               ; preds = %22
  %26 = load ptr, ptr %14, align 8
  %27 = load i8, ptr %26, align 1
  %28 = zext i8 %27 to i32
  %29 = icmp ne i32 %28, 0
  br label %30

30:                                               ; preds = %25, %22
  %31 = phi i1 [ false, %22 ], [ %29, %25 ]
  br i1 %31, label %32, label %135

32:                                               ; preds = %30
  %33 = load ptr, ptr %10, align 8
  %34 = getelementptr inbounds nuw %struct.SPNode, ptr %33, i32 0, i32 1
  %35 = getelementptr inbounds [0 x %struct.SPNodeData], ptr %34, i64 0, i64 0
  store ptr %35, ptr %11, align 8
  %36 = load ptr, ptr %10, align 8
  %37 = getelementptr inbounds nuw %struct.SPNode, ptr %36, i32 0, i32 1
  %38 = getelementptr inbounds [0 x %struct.SPNodeData], ptr %37, i64 0, i64 0
  %39 = load ptr, ptr %10, align 8
  %40 = getelementptr inbounds nuw %struct.SPNode, ptr %39, i32 0, i32 0
  %41 = load i32, ptr %40, align 8
  %42 = zext i32 %41 to i64
  %43 = getelementptr inbounds nuw %struct.SPNodeData, ptr %38, i64 %42
  store ptr %43, ptr %12, align 8
  br label %44

44:                                               ; preds = %128, %32
  %45 = load ptr, ptr %11, align 8
  %46 = load ptr, ptr %12, align 8
  %47 = icmp ult ptr %45, %46
  br i1 %47, label %48, label %129

48:                                               ; preds = %44
  %49 = load ptr, ptr %11, align 8
  %50 = load ptr, ptr %12, align 8
  %51 = load ptr, ptr %11, align 8
  %52 = ptrtoint ptr %50 to i64
  %53 = ptrtoint ptr %51 to i64
  %54 = sub i64 %52, %53
  %55 = sdiv exact i64 %54, 16
  %56 = ashr i64 %55, 1
  %57 = getelementptr inbounds %struct.SPNodeData, ptr %49, i64 %56
  store ptr %57, ptr %13, align 8
  %58 = load ptr, ptr %13, align 8
  %59 = load i32, ptr %58, align 8
  %60 = and i32 %59, 255
  %61 = load ptr, ptr %14, align 8
  %62 = load i8, ptr %61, align 1
  %63 = zext i8 %62 to i32
  %64 = icmp eq i32 %60, %63
  br i1 %64, label %65, label %114

65:                                               ; preds = %48
  %66 = load ptr, ptr %14, align 8
  %67 = getelementptr inbounds i8, ptr %66, i64 1
  %68 = load i8, ptr %67, align 1
  %69 = zext i8 %68 to i32
  %70 = icmp eq i32 %69, 0
  br i1 %70, label %71, label %108

71:                                               ; preds = %65
  %72 = load ptr, ptr %13, align 8
  %73 = load i32, ptr %72, align 8
  %74 = lshr i32 %73, 8
  %75 = and i32 %74, 1
  %76 = icmp ne i32 %75, 0
  br i1 %76, label %77, label %108

77:                                               ; preds = %71
  %78 = load i32, ptr %9, align 4
  %79 = icmp eq i32 %78, 0
  br i1 %79, label %80, label %89

80:                                               ; preds = %77
  %81 = load ptr, ptr %13, align 8
  %82 = load i32, ptr %81, align 8
  %83 = lshr i32 %82, 9
  %84 = and i32 %83, 15
  %85 = and i32 %84, 1
  %86 = icmp ne i32 %85, 0
  br i1 %86, label %87, label %88

87:                                               ; preds = %80
  store i32 0, ptr %5, align 4
  store i32 1, ptr %15, align 4
  br label %136

88:                                               ; preds = %80
  br label %99

89:                                               ; preds = %77
  %90 = load i32, ptr %9, align 4
  %91 = load ptr, ptr %13, align 8
  %92 = load i32, ptr %91, align 8
  %93 = lshr i32 %92, 9
  %94 = and i32 %93, 15
  %95 = and i32 %90, %94
  %96 = icmp eq i32 %95, 0
  br i1 %96, label %97, label %98

97:                                               ; preds = %89
  store i32 0, ptr %5, align 4
  store i32 1, ptr %15, align 4
  br label %136

98:                                               ; preds = %89
  br label %99

99:                                               ; preds = %98, %88
  %100 = load ptr, ptr %6, align 8
  %101 = load ptr, ptr %13, align 8
  %102 = load i32, ptr %101, align 8
  %103 = lshr i32 %102, 13
  %104 = load ptr, ptr %8, align 8
  %105 = call zeroext i1 @IsAffixFlagInUse(ptr noundef %100, i32 noundef %103, ptr noundef %104)
  br i1 %105, label %106, label %107

106:                                              ; preds = %99
  store i32 1, ptr %5, align 4
  store i32 1, ptr %15, align 4
  br label %136

107:                                              ; preds = %99
  br label %108

108:                                              ; preds = %107, %71, %65
  %109 = load ptr, ptr %13, align 8
  %110 = getelementptr inbounds nuw %struct.SPNodeData, ptr %109, i32 0, i32 1
  %111 = load ptr, ptr %110, align 8
  store ptr %111, ptr %10, align 8
  %112 = load ptr, ptr %14, align 8
  %113 = getelementptr inbounds nuw i8, ptr %112, i32 1
  store ptr %113, ptr %14, align 8
  br label %129

114:                                              ; preds = %48
  %115 = load ptr, ptr %13, align 8
  %116 = load i32, ptr %115, align 8
  %117 = and i32 %116, 255
  %118 = load ptr, ptr %14, align 8
  %119 = load i8, ptr %118, align 1
  %120 = zext i8 %119 to i32
  %121 = icmp slt i32 %117, %120
  br i1 %121, label %122, label %125

122:                                              ; preds = %114
  %123 = load ptr, ptr %13, align 8
  %124 = getelementptr inbounds %struct.SPNodeData, ptr %123, i64 1
  store ptr %124, ptr %11, align 8
  br label %127

125:                                              ; preds = %114
  %126 = load ptr, ptr %13, align 8
  store ptr %126, ptr %12, align 8
  br label %127

127:                                              ; preds = %125, %122
  br label %128

128:                                              ; preds = %127
  br label %44, !llvm.loop !59

129:                                              ; preds = %108, %44
  %130 = load ptr, ptr %11, align 8
  %131 = load ptr, ptr %12, align 8
  %132 = icmp uge ptr %130, %131
  br i1 %132, label %133, label %134

133:                                              ; preds = %129
  br label %135

134:                                              ; preds = %129
  br label %22, !llvm.loop !60

135:                                              ; preds = %133, %30
  store i32 0, ptr %5, align 4
  store i32 1, ptr %15, align 4
  br label %136

136:                                              ; preds = %135, %106, %97, %87
  call void @llvm.lifetime.end.p0(i64 8, ptr %14) #11
  call void @llvm.lifetime.end.p0(i64 8, ptr %13) #11
  call void @llvm.lifetime.end.p0(i64 8, ptr %12) #11
  call void @llvm.lifetime.end.p0(i64 8, ptr %11) #11
  call void @llvm.lifetime.end.p0(i64 8, ptr %10) #11
  %137 = load i32, ptr %5, align 4
  ret i32 %137
}