; Function Attrs: nounwind uwtable
define internal fastcc range(i32 0, 2) i32 @FindWord(ptr noundef readonly captures(none) %0, ptr noundef readonly captures(none) %1, ptr noundef readonly captures(none) %2, i32 noundef range(i32 0, 9) %3) unnamed_addr #0 {
  %5 = alloca ptr, align 8
  %6 = alloca [8192 x i8], align 16
  %7 = getelementptr inbounds nuw i8, ptr %0, i64 32
  %8 = load ptr, ptr %7, align 8
  %.old1.not = icmp eq ptr %8, null
  br i1 %.old1.not, label %.critedge, label %.preheader

.preheader:                                       ; preds = %4
  %9 = icmp eq i32 %3, 0
  %10 = getelementptr inbounds nuw i8, ptr %0, i64 40
  br label %11

11:                                               ; preds = %.preheader, %57
  %.038 = phi ptr [ %59, %57 ], [ %8, %.preheader ]
  %.0 = phi ptr [ %27, %57 ], [ %1, %.preheader ]
  %12 = load i8, ptr %.0, align 1
  %.not = icmp eq i8 %12, 0
  br i1 %.not, label %.critedge, label %13

13:                                               ; preds = %11
  %14 = load i32, ptr %.038, align 8
  %.not59 = icmp eq i32 %14, 0
  br i1 %.not59, label %.critedge, label %.lr.ph

.lr.ph:                                           ; preds = %13
  %15 = zext i32 %14 to i64
  %.ptr = getelementptr inbounds nuw i8, ptr %.038, i64 8
  %.idx = shl nuw nsw i64 %15, 4
  %.add = or disjoint i64 %.idx, 8
  %.ptr58 = getelementptr inbounds nuw i8, ptr %.038, i64 %.add
  %16 = zext i8 %12 to i32
  br label %17

17:                                               ; preds = %.lr.ph, %53
  %.03456 = phi ptr [ %.ptr58, %.lr.ph ], [ %.135, %53 ]
  %.03655 = phi ptr [ %.ptr, %.lr.ph ], [ %.137, %53 ]
  %18 = ptrtoint ptr %.03456 to i64
  %19 = ptrtoint ptr %.03655 to i64
  %20 = sub i64 %18, %19
  %21 = ashr i64 %20, 5
  %22 = getelementptr inbounds %struct.SPNodeData, ptr %.03655, i64 %21
  %23 = load i32, ptr %22, align 8
  %24 = and i32 %23, 255
  %25 = icmp eq i32 %24, %16
  br i1 %25, label %26, label %53

26:                                               ; preds = %17
  %27 = getelementptr inbounds nuw i8, ptr %.0, i64 1
  %28 = load i8, ptr %27, align 1
  %29 = icmp ne i8 %28, 0
  %30 = and i32 %23, 256
  %.not44 = icmp eq i32 %30, 0
  %or.cond46 = or i1 %.not44, %29
  br i1 %or.cond46, label %57, label %31

31:                                               ; preds = %26
  br i1 %9, label %32, label %34

32:                                               ; preds = %31
  %33 = and i32 %23, 512
  %.not45 = icmp eq i32 %33, 0
  br i1 %.not45, label %38, label %.critedge

34:                                               ; preds = %31
  %35 = lshr i32 %23, 9
  %36 = and i32 %3, %35
  %37 = icmp eq i32 %36, 0
  br i1 %37, label %.critedge, label %38

38:                                               ; preds = %34, %32
  call void @llvm.lifetime.start.p0(i64 8, ptr nonnull %5) #14
  call void @llvm.lifetime.start.p0(i64 8192, ptr nonnull %6) #14
  %39 = load i8, ptr %2, align 1
  %40 = icmp eq i8 %39, 0
  br i1 %40, label %IsAffixFlagInUse.exit.thread, label %41

41:                                               ; preds = %38
  %42 = lshr i32 %23, 13
  %43 = load ptr, ptr %10, align 8
  %44 = zext nneg i32 %42 to i64
  %45 = getelementptr inbounds nuw ptr, ptr %43, i64 %44
  %46 = load ptr, ptr %45, align 8
  store ptr %46, ptr %5, align 8
  br label %47

47:                                               ; preds = %50, %41
  %48 = load ptr, ptr %5, align 8
  %49 = load i8, ptr %48, align 1
  %.not.not.i = icmp eq i8 %49, 0
  br i1 %.not.not.i, label %IsAffixFlagInUse.exit, label %50

50:                                               ; preds = %47
  call fastcc void @getNextFlagFromString(ptr noundef readonly %0, ptr noundef %5, ptr noundef %6)
  %51 = call i32 @strcmp(ptr noundef nonnull dereferenceable(1) %6, ptr noundef nonnull readonly dereferenceable(1) %2) #17
  %52 = icmp eq i32 %51, 0
  br i1 %52, label %IsAffixFlagInUse.exit.thread, label %47, !llvm.loop !28

IsAffixFlagInUse.exit.thread:                     ; preds = %38, %50
  call void @llvm.lifetime.end.p0(i64 8192, ptr nonnull %6) #14
  call void @llvm.lifetime.end.p0(i64 8, ptr nonnull %5) #14
  br label %.critedge

IsAffixFlagInUse.exit:                            ; preds = %47
  call void @llvm.lifetime.end.p0(i64 8192, ptr nonnull %6) #14
  call void @llvm.lifetime.end.p0(i64 8, ptr nonnull %5) #14
  br label %57

53:                                               ; preds = %17
  %54 = icmp samesign ult i32 %24, %16
  %55 = getelementptr inbounds nuw i8, ptr %22, i64 16
  %.137 = select i1 %54, ptr %55, ptr %.03655
  %.135 = select i1 %54, ptr %.03456, ptr %22
  %56 = icmp ult ptr %.137, %.135
  br i1 %56, label %17, label %.critedge, !llvm.loop !44

57:                                               ; preds = %26, %IsAffixFlagInUse.exit
  %58 = getelementptr inbounds nuw i8, ptr %22, i64 8
  %59 = load ptr, ptr %58, align 8
  %.not51 = icmp eq ptr %59, null
  br i1 %.not51, label %.critedge, label %11, !llvm.loop !45

.critedge:                                        ; preds = %11, %57, %34, %32, %13, %53, %IsAffixFlagInUse.exit.thread, %4
  %.033 = phi i32 [ 0, %4 ], [ 1, %IsAffixFlagInUse.exit.thread ], [ 0, %53 ], [ 0, %13 ], [ 0, %32 ], [ 0, %34 ], [ 0, %57 ], [ 0, %11 ]
  ret i32 %.033
}